ccopy_reg
_reconstructor
p0
(cnetworkx.classes.digraph
DiGraph
p1
c__builtin__
object
p2
Ntp3
Rp4
(dp5
S'node'
p6
(dp7
S'Apple Tree Partners'
p8
(dp9
sS'VFA'
p10
(dp11
sS'Pierpoint Capital'
p12
(dp13
sS'Edison Partners'
p14
(dp15
sS'Zaffre Investments'
p16
(dp17
sS'Baseline Ventures'
p18
(dp19
sS'SR One'
p20
(dp21
sS'PatientsLikeMe'
p22
(dp23
sS'PatientRoute Systems'
p24
(dp25
sS'Excelerate Health Ventures'
p26
(dp27
sS'ZappRX'
p28
(dp29
sS'Terry Meguld'
p30
(dp31
sS'Flagship Ventures'
p32
(dp33
sS'MicroCHIPS'
p34
(dp35
sS'CommerceNet'
p36
(dp37
sS'Cure Forward'
p38
(dp39
sS'Prevently'
p40
(dp41
sS'Omidyar Network'
p42
(dp43
sS'Seventh Sense Biosystems'
p44
(dp45
sS'Polaris Partners'
p46
(dp47
sS'Novartis Venture Funds'
p48
(dp49
sS'Stonehenge Growth Capital'
p50
(dp51
sS'Black Granite Capital'
p52
(dp53
sS'Longwall Venture Partners'
p54
(dp55
sS'Ovuline'
p56
(dp57
sS'CIT Group'
p58
(dp59
sS'Hyper Ventures'
p60
(dp61
sS'SynapDx'
p62
(dp63
sS'Cambia Health Solutions'
p64
(dp65
sS'ABS Capital Partners'
p66
(dp67
sS'Nexercise'
p68
(dp69
sS'Techstars Ventures'
p70
(dp71
sS'LionBird'
p72
(dp73
sS'500 Startups'
p74
(dp75
sS'Eliza Corporation'
p76
(dp77
sS'5AM Ventures'
p78
(dp79
sS'LabCorp'
p80
(dp81
sS'David Hamamoto'
p82
(dp83
sS'Techstars'
p84
(dp85
sS'Safeguard Scientifics'
p86
(dp87
sS'Long River Ventures'
p88
(dp89
sS'Apple Tree Ventures'
p90
(dp91
sS'GNS Healthcare'
p92
(dp93
sS'Medtronic Ventures'
p94
(dp95
sS'Militello Capital'
p96
(dp97
sS'BR Venture Fund'
p98
(dp99
sS'Google Ventures'
p100
(dp101
sS'Partners HealthCare'
p102
(dp103
sS'Arcadia Healthcare Solutions'
p104
(dp105
sS'TechStars Boston'
p106
(dp107
sS'lifeIMAGE'
p108
(dp109
sS'ScriptPad'
p110
(dp111
sS'BR Ventures'
p112
(dp113
sS'Peloton Equity'
p114
(dp115
sS'Collaborative Seed & Growth Partners'
p116
(dp117
sS'Invus Group'
p118
(dp119
sS'GE Ventures'
p120
(dp121
sS'New Venture Partners'
p122
(dp123
sS'Enhanced Capital Partners'
p124
(dp125
sS'Generator Ventures'
p126
(dp127
sS'Parthenon Capital Partners'
p128
(dp129
sS'Galen Partners'
p130
(dp131
sS'Qualcomm Ventures'
p132
(dp133
sS'Silicon Valley Bank'
p134
(dp135
sS'Alverix'
p136
(dp137
sS'Atlas Venture'
p138
(dp139
sS'Careport Health'
p140
(dp141
sS'Telegraph Hill Partners'
p142
(dp143
sS'Pear Therapeutics'
p144
(dp145
sS'Kraft Group'
p146
(dp147
sS'Excelerate Labs'
p148
(dp149
sS'Cardinal Partners'
p150
(dp151
sS'MassVentures'
p152
(dp153
sS'Lightbank'
p154
(dp155
sS'Laboratory Corporation of America'
p156
(dp157
sS'Siemens Venture Capital'
p158
(dp159
sS'Novartis Venture Fund'
p160
(dp161
sS'Tailwind Capital'
p162
(dp163
sS'LaunchCapital'
p164
(dp165
sS'Ornim Medical'
p166
(dp167
sS'Partners Innovation Fund'
p168
(dp169
sS'Cambridge Temperature Concepts'
p170
(dp171
sS'James Glimm'
p172
(dp173
sS'Andy Palmer'
p174
(dp175
sS'Wachovia Bank'
p176
(dp177
sS'CommonAngels Ventures'
p178
(dp179
ssS'graph'
p180
(dp181
sS'succ'
p182
(dp183
g8
(dp184
g38
(dp185
ssg10
(dp186
sg12
(dp187
g24
(dp188
ssg14
(dp189
g10
(dp190
ssg16
(dp191
g104
(dp192
ssg18
(dp193
g140
(dp194
ssg20
(dp195
g28
(dp196
ssg22
(dp197
sg24
(dp198
sg26
(dp199
g140
(dp200
ssg28
(dp201
sg30
(dp202
g28
(dp203
ssg32
(dp204
g44
(dp205
ssg34
(dp206
sg36
(dp207
g22
(dp208
ssg38
(dp209
sg40
(dp210
sg42
(dp211
g22
(dp212
ssg44
(dp213
sg46
(dp214
g44
(dp215
ssg48
(dp216
g34
(dp217
ssg50
(dp218
g176
(dp219
ssg52
(dp220
g24
(dp221
ssg54
(dp222
g170
(dp223
ssg56
(dp224
sg58
(dp225
g58
(dp226
ssg60
(dp227
g40
(dp228
ssg62
(dp229
sg64
(dp230
g108
(dp231
sg92
(dp232
ssg66
(dp233
g176
(dp234
ssg68
(dp235
sg70
(dp236
g56
(dp237
ssg72
(dp238
g56
(dp239
ssg74
(dp240
g140
(dp241
ssg76
(dp242
sg78
(dp243
g144
(dp244
ssg80
(dp245
g62
(dp246
ssg82
(dp247
g28
(dp248
ssg84
(dp249
g110
(dp250
ssg86
(dp251
g136
(dp252
ssg88
(dp253
g108
(dp254
ssg90
(dp255
g38
(dp256
ssg92
(dp257
sg94
(dp258
g34
(dp259
ssg96
(dp260
g68
(dp261
ssg98
(dp262
g110
(dp263
ssg100
(dp264
g62
(dp265
ssg102
(dp266
g108
(dp267
ssg104
(dp268
sg106
(dp269
g140
(dp270
ssg108
(dp271
sg110
(dp272
sg112
(dp273
g110
(dp274
ssg114
(dp275
g104
(dp276
ssg116
(dp277
g22
(dp278
ssg118
(dp279
g22
(dp280
ssg120
(dp281
g166
(dp282
ssg122
(dp283
g136
(dp284
ssg124
(dp285
S'Enhanced Capital Partners'
p286
(dp287
ssg126
(dp288
g140
(dp289
ssg128
(dp290
g76
(dp291
ssg130
(dp292
g108
(dp293
ssg132
(dp294
g170
(dp295
ssg134
(dp296
g10
(dp297
ssg136
(dp298
sg138
(dp299
g28
(dp300
ssg140
(dp301
sg142
(dp302
g58
(dp303
ssg144
(dp304
sg146
(dp305
g62
(dp306
ssg148
(dp307
g68
(dp308
ssg150
(dp309
g108
(dp310
ssg152
(dp311
g108
(dp312
ssg154
(dp313
g56
(dp314
ssg156
(dp315
g62
(dp316
sg44
(dp317
ssg158
(dp318
g44
(dp319
ssg160
(dp320
g44
(dp321
ssg162
(dp322
g58
(dp323
ssg164
(dp324
g140
(dp325
ssg166
(dp326
sg168
(dp327
g108
(dp328
ssg170
(dp329
sg172
(dp330
g28
(dp331
ssg174
(dp332
g140
(dp333
ssg176
(dp334
g176
(dp335
ssg178
(dp336
g140
(dp337
sssS'edge'
p338
g183
sS'pred'
p339
(dp340
g8
(dp341
sg10
(dp342
g134
g297
sg14
g190
ssg12
(dp343
sg14
(dp344
sg16
(dp345
sg18
(dp346
sg20
(dp347
sg22
(dp348
g42
g212
sg36
g208
sg116
g278
sg118
g280
ssg24
(dp349
g52
g221
sg12
g188
ssg26
(dp350
sg28
(dp351
g82
g248
sg138
g300
sg172
g331
sg30
g203
sg20
g196
ssg30
(dp352
sg32
(dp353
sg34
(dp354
g48
g217
sg94
g259
ssg36
(dp355
sg38
(dp356
g8
g185
sg90
g256
ssg40
(dp357
g60
g228
ssg42
(dp358
sg44
(dp359
g32
g205
sg160
g321
sg158
g319
sg46
g215
sS'Laboratory Corporation of America'
p360
g317
ssg46
(dp361
sg48
(dp362
sg50
(dp363
sg52
(dp364
sg54
(dp365
sg56
(dp366
g72
g239
sg70
g237
sg154
g314
ssg58
(dp367
g162
g323
sS'CIT Group'
p368
g226
sg142
g303
ssg60
(dp369
sg62
(dp370
g100
g265
sg146
g306
sg156
g316
sg80
g246
ssg64
(dp371
sg66
(dp372
sg68
(dp373
g148
g308
sg96
g261
ssg70
(dp374
sg72
(dp375
sg74
(dp376
sg76
(dp377
g128
g291
ssg78
(dp378
sg80
(dp379
sg82
(dp380
sg84
(dp381
sg86
(dp382
sg88
(dp383
sg90
(dp384
sg92
(dp385
g64
g232
ssg94
(dp386
sg96
(dp387
sg98
(dp388
sg100
(dp389
sg102
(dp390
sg104
(dp391
g114
g276
sg16
g192
ssg106
(dp392
sg108
(dp393
g130
g293
sg150
g310
sg152
g312
sg168
g328
sg102
g267
sg88
g254
sS'Cambia Health Solutions'
p394
g231
ssg110
(dp395
g84
g250
sg98
g263
sg112
g274
ssg112
(dp396
sg114
(dp397
sg116
(dp398
sg118
(dp399
sg120
(dp400
sg122
(dp401
sg124
(dp402
g124
g287
ssg126
(dp403
sg128
(dp404
sg130
(dp405
sg132
(dp406
sg134
(dp407
sg136
(dp408
g122
g284
sg86
g252
ssg138
(dp409
sg140
(dp410
g106
g270
sg74
g241
sg164
g325
sg18
g194
sg126
g289
sg174
g333
sg178
g337
sg26
g200
ssg142
(dp411
sg144
(dp412
g78
g244
ssg146
(dp413
sg148
(dp414
sg150
(dp415
sg152
(dp416
sg154
(dp417
sg156
(dp418
sg158
(dp419
sg160
(dp420
sg162
(dp421
sg164
(dp422
sg166
(dp423
g120
g282
ssg168
(dp424
sg170
(dp425
g54
g223
sg132
g295
ssg172
(dp426
sg174
(dp427
sg176
(dp428
g50
g219
sg66
g234
sS'Wachovia Bank'
p429
g335
ssg178
(dp430
ssS'adj'
p431
g183
sb.